target datalayout = "e-m:e-p270:32:32-p271:32:32-p272:64:64-i64:64-i128:128-f80:128-n8:16:32:64-S128"
target triple = "x86_64-pc-linux-gnu"

%"class.clang::StackFrameContext" = type { %"class.clang::LocationContext", ptr, ptr, i32, i32 }
%"class.clang::LocationContext" = type { ptr, %"class.llvm::FoldingSetBase::Node", i32, ptr, ptr, i64 }
%"class.llvm::FoldingSetBase::Node" = type { ptr }

; Function Attrs: mustprogress nounwind uwtable
define linkonce_odr hidden noundef ptr @_ZNK5clang15LocationContext9getParentEv(ptr noundef nonnull align 8 dereferenceable(48) %0) #0 comdat align 2 {
  %2 = alloca ptr, align 8
  store ptr %0, ptr %2, align 8
  %3 = load ptr, ptr %2, align 8
  %4 = getelementptr inbounds nuw %"class.clang::LocationContext", ptr %3, i32 0, i32 4
  %5 = load ptr, ptr %4, align 8
  ret ptr %5
}

; Function Attrs: mustprogress nounwind uwtable
define linkonce_odr hidden noundef nonnull ptr @_ZNK5clang15LocationContext22getAnalysisDeclContextEv(ptr noundef nonnull align 8 dereferenceable(48) %0) #0 comdat align 2 {
  %2 = alloca ptr, align 8
  store ptr %0, ptr %2, align 8
  %3 = load ptr, ptr %2, align 8
  %4 = getelementptr inbounds nuw %"class.clang::LocationContext", ptr %3, i32 0, i32 3
  %5 = load ptr, ptr %4, align 8
  ret ptr %5
}

; Function Attrs: mustprogress nounwind uwtable
define dso_local void @_ZN5clang17StackFrameContext7ProfileERN4llvm16FoldingSetNodeIDE(ptr noundef nonnull align 8 dereferenceable(72) %0, ptr noundef nonnull align 8 dereferenceable(144) %1) unnamed_addr #0 align 2 {
  %3 = alloca ptr, align 8
  %4 = alloca ptr, align 8
  store ptr %0, ptr %3, align 8
  store ptr %1, ptr %4, align 8
  %5 = load ptr, ptr %3, align 8
  %6 = load ptr, ptr %4, align 8
  %7 = call noundef nonnull ptr @_ZNK5clang15LocationContext22getAnalysisDeclContextEv(ptr noundef nonnull align 8 dereferenceable(48) %5)
  %8 = call noundef ptr @_ZNK5clang15LocationContext9getParentEv(ptr noundef nonnull align 8 dereferenceable(48) %5)
  %9 = getelementptr inbounds nuw %"class.clang::StackFrameContext", ptr %5, i32 0, i32 1
  %10 = load ptr, ptr %9, align 8
  %11 = getelementptr inbounds nuw %"class.clang::StackFrameContext", ptr %5, i32 0, i32 2
  %12 = load ptr, ptr %11, align 8
  %13 = getelementptr inbounds nuw %"class.clang::StackFrameContext", ptr %5, i32 0, i32 3
  %14 = load i32, ptr %13, align 8
  %15 = getelementptr inbounds nuw %"class.clang::StackFrameContext", ptr %5, i32 0, i32 4
  %16 = load i32, ptr %15, align 4
  call void @_ZN5clang17StackFrameContext7ProfileERN4llvm16FoldingSetNodeIDEPNS_19AnalysisDeclContextEPKNS_15LocationContextEPKNS_4StmtEPKNS_8CFGBlockEjj(ptr noundef nonnull align 8 dereferenceable(144) %6, ptr noundef %7, ptr noundef %8, ptr noundef %10, ptr noundef %12, i32 noundef %14, i32 noundef %16)
  ret void
}