; Function Attrs: mustprogress nounwind uwtable
define dso_local void @_ZN5clang17StackFrameContext7ProfileERN4llvm16FoldingSetNodeIDE(ptr nocapture noundef nonnull readonly align 8 dereferenceable(72) %0, ptr noundef nonnull align 8 dereferenceable(144) %1) unnamed_addr #0 align 2 {
  %3 = getelementptr inbounds nuw i8, ptr %0, i64 24
  %4 = load ptr, ptr %3, align 8
  %5 = getelementptr inbounds nuw i8, ptr %0, i64 32
  %6 = load ptr, ptr %5, align 8
  %7 = getelementptr inbounds nuw i8, ptr %0, i64 48
  %8 = load ptr, ptr %7, align 8
  %9 = getelementptr inbounds nuw i8, ptr %0, i64 56
  %10 = load ptr, ptr %9, align 8
  %11 = getelementptr inbounds nuw i8, ptr %0, i64 64
  %12 = load i32, ptr %11, align 8
  %13 = getelementptr inbounds nuw i8, ptr %0, i64 68
  %14 = load i32, ptr %13, align 4
  tail call void @_ZN5clang17StackFrameContext7ProfileERN4llvm16FoldingSetNodeIDEPNS_19AnalysisDeclContextEPKNS_15LocationContextEPKNS_4StmtEPKNS_8CFGBlockEjj(ptr noundef nonnull align 8 dereferenceable(144) %1, ptr noundef nonnull %4, ptr noundef %6, ptr noundef %8, ptr noundef %10, i32 noundef %12, i32 noundef %14)
  ret void
}